target datalayout = "e-m:e-p270:32:32-p271:32:32-p272:64:64-i64:64-i128:128-f80:128-n8:16:32:64-S128"
target triple = "x86_64-pc-linux-gnu"

%struct.packed_git = type { %struct.hashmap_entry, ptr, %struct.list_head, ptr, i64, ptr, i64, i32, i64, %struct.oidset, i32, i64, i32, i32, i8, [32 x i8], ptr, ptr, ptr, i64, ptr, i64, ptr, [0 x i8] }
%struct.hashmap_entry = type { ptr, i32 }
%struct.list_head = type { ptr, ptr }
%struct.oidset = type { %struct.kh_oid_set }
%struct.kh_oid_set = type { i32, i32, i32, i32, ptr, ptr, ptr }

@.str = private unnamed_addr constant [14 x i8] c"pack-mtimes.c\00", align 1
@.str.1 = private unnamed_addr constant [36 x i8] c"pack .mtimes file not loaded for %s\00", align 1
@.str.2 = private unnamed_addr constant [38 x i8] c"pack .mtimes out-of-bounds (%u vs %u)\00", align 1

; Function Attrs: inlinehint nounwind uwtable
define internal i32 @get_be32(ptr noundef %0) #5 {
  %2 = alloca ptr, align 8
  %3 = alloca ptr, align 8
  store ptr %0, ptr %2, align 8, !tbaa !28
  call void @llvm.lifetime.start.p0(i64 8, ptr %3) #8
  %4 = load ptr, ptr %2, align 8, !tbaa !28
  store ptr %4, ptr %3, align 8, !tbaa !9
  %5 = load ptr, ptr %3, align 8, !tbaa !9
  %6 = getelementptr inbounds i8, ptr %5, i64 0
  %7 = load i8, ptr %6, align 1, !tbaa !29
  %8 = zext i8 %7 to i32
  %9 = shl i32 %8, 24
  %10 = load ptr, ptr %3, align 8, !tbaa !9
  %11 = getelementptr inbounds i8, ptr %10, i64 1
  %12 = load i8, ptr %11, align 1, !tbaa !29
  %13 = zext i8 %12 to i32
  %14 = shl i32 %13, 16
  %15 = or i32 %9, %14
  %16 = load ptr, ptr %3, align 8, !tbaa !9
  %17 = getelementptr inbounds i8, ptr %16, i64 2
  %18 = load i8, ptr %17, align 1, !tbaa !29
  %19 = zext i8 %18 to i32
  %20 = shl i32 %19, 8
  %21 = or i32 %15, %20
  %22 = load ptr, ptr %3, align 8, !tbaa !9
  %23 = getelementptr inbounds i8, ptr %22, i64 3
  %24 = load i8, ptr %23, align 1, !tbaa !29
  %25 = zext i8 %24 to i32
  %26 = shl i32 %25, 0
  %27 = or i32 %21, %26
  call void @llvm.lifetime.end.p0(i64 8, ptr %3) #8
  ret i32 %27
}

; Function Attrs: nounwind uwtable
define dso_local i32 @nth_packed_mtime(ptr noundef %0, i32 noundef %1) #0 {
  %3 = alloca ptr, align 8
  %4 = alloca i32, align 4
  store ptr %0, ptr %3, align 8, !tbaa !4
  store i32 %1, ptr %4, align 4, !tbaa !11
  %5 = load ptr, ptr %3, align 8, !tbaa !4
  %6 = getelementptr inbounds nuw %struct.packed_git, ptr %5, i32 0, i32 20
  %7 = load ptr, ptr %6, align 8, !tbaa !13
  %8 = icmp ne ptr %7, null
  br i1 %8, label %13, label %9

9:                                                ; preds = %2
  %10 = load ptr, ptr %3, align 8, !tbaa !4
  %11 = getelementptr inbounds nuw %struct.packed_git, ptr %10, i32 0, i32 23
  %12 = getelementptr inbounds [0 x i8], ptr %11, i64 0, i64 0
  call void (ptr, i32, ptr, ...) @BUG_fl(ptr noundef @.str, i32 noundef 127, ptr noundef @.str.1, ptr noundef %12) #9
  unreachable

13:                                               ; preds = %2
  %14 = load ptr, ptr %3, align 8, !tbaa !4
  %15 = getelementptr inbounds nuw %struct.packed_git, ptr %14, i32 0, i32 7
  %16 = load i32, ptr %15, align 8, !tbaa !11
  %17 = load i32, ptr %4, align 4, !tbaa !11
  %18 = icmp ule i32 %16, %17
  br i1 %18, label %19, label %24

19:                                               ; preds = %13
  %20 = load i32, ptr %4, align 4, !tbaa !11
  %21 = load ptr, ptr %3, align 8, !tbaa !4
  %22 = getelementptr inbounds nuw %struct.packed_git, ptr %21, i32 0, i32 7
  %23 = load i32, ptr %22, align 8, !tbaa !11
  call void (ptr, i32, ptr, ...) @BUG_fl(ptr noundef @.str, i32 noundef 130, ptr noundef @.str.2, i32 noundef %20, i32 noundef %23) #9
  unreachable

24:                                               ; preds = %13
  %25 = load ptr, ptr %3, align 8, !tbaa !4
  %26 = getelementptr inbounds nuw %struct.packed_git, ptr %25, i32 0, i32 20
  %27 = load ptr, ptr %26, align 8, !tbaa !13
  %28 = load i32, ptr %4, align 4, !tbaa !11
  %29 = zext i32 %28 to i64
  %30 = getelementptr inbounds nuw i32, ptr %27, i64 %29
  %31 = getelementptr inbounds i32, ptr %30, i64 3
  %32 = call i32 @get_be32(ptr noundef %31)
  ret i32 %32
}