; Function Attrs: nounwind uwtable
define dso_local i32 @nth_packed_mtime(ptr noundef %0, i32 noundef %1) local_unnamed_addr #0 {
  %3 = getelementptr inbounds nuw i8, ptr %0, i64 224
  %4 = load ptr, ptr %3, align 8, !tbaa !4
  %.not = icmp eq ptr %4, null
  br i1 %.not, label %5, label %7

5:                                                ; preds = %2
  %6 = getelementptr inbounds nuw i8, ptr %0, i64 248
  tail call void (ptr, i32, ptr, ...) @BUG_fl(ptr noundef nonnull @.str, i32 noundef 127, ptr noundef nonnull @.str.1, ptr noundef nonnull %6) #11
  unreachable

7:                                                ; preds = %2
  %8 = getelementptr inbounds nuw i8, ptr %0, i64 72
  %9 = load i32, ptr %8, align 8, !tbaa !9
  %.not9 = icmp ugt i32 %9, %1
  br i1 %.not9, label %11, label %10

10:                                               ; preds = %7
  tail call void (ptr, i32, ptr, ...) @BUG_fl(ptr noundef nonnull @.str, i32 noundef 130, ptr noundef nonnull @.str.2, i32 noundef %1, i32 noundef %9) #11
  unreachable

11:                                               ; preds = %7
  %12 = zext i32 %1 to i64
  %13 = getelementptr inbounds nuw i32, ptr %4, i64 %12
  %14 = getelementptr inbounds nuw i8, ptr %13, i64 12
  %15 = load i8, ptr %14, align 1, !tbaa !17
  %16 = zext i8 %15 to i32
  %17 = shl nuw i32 %16, 24
  %18 = getelementptr inbounds nuw i8, ptr %13, i64 13
  %19 = load i8, ptr %18, align 1, !tbaa !17
  %20 = zext i8 %19 to i32
  %21 = shl nuw nsw i32 %20, 16
  %22 = or disjoint i32 %21, %17
  %23 = getelementptr inbounds nuw i8, ptr %13, i64 14
  %24 = load i8, ptr %23, align 1, !tbaa !17
  %25 = zext i8 %24 to i32
  %26 = shl nuw nsw i32 %25, 8
  %27 = or disjoint i32 %22, %26
  %28 = getelementptr inbounds nuw i8, ptr %13, i64 15
  %29 = load i8, ptr %28, align 1, !tbaa !17
  %30 = zext i8 %29 to i32
  %31 = or disjoint i32 %27, %30
  ret i32 %31
}